target datalayout = "e-m:e-p270:32:32-p271:32:32-p272:64:64-i64:64-i128:128-f80:128-n8:16:32:64-S128"
target triple = "x86_64-pc-linux-gnu"

%struct.ForEachState = type { ptr, i32 }
%struct.RelOptInfo = type { i32, i32, ptr, double, i8, i8, i8, ptr, ptr, ptr, ptr, ptr, ptr, ptr, ptr, ptr, ptr, i32, i32, i32, i16, i16, ptr, ptr, ptr, ptr, ptr, ptr, ptr, ptr, i32, double, double, ptr, ptr, ptr, i32, i32, i32, i32, i8, ptr, ptr, ptr, ptr, ptr, %struct.QualCost, i32, ptr, i8, i8, ptr, ptr, ptr, ptr, i32, ptr, i8, ptr, ptr, ptr, ptr, ptr, ptr }
%struct.QualCost = type { double, double }
%struct.List = type { i32, i32, i32, ptr, [0 x %union.ListCell] }
%union.ListCell = type { ptr }
%struct.IndexOptInfo = type { i32, i32, i32, ptr, i32, double, i32, i32, i32, ptr, ptr, ptr, ptr, ptr, ptr, ptr, ptr, ptr, i32, ptr, ptr, ptr, ptr, i8, i8, i8, i8, i8, i8, i8, i8, i8, i8, i8, i8, i8, ptr }
%struct.RestrictInfo = type { i32, ptr, i8, i8, i8, i8, i8, i8, i32, i32, i32, ptr, ptr, ptr, ptr, ptr, ptr, ptr, i32, ptr, %struct.QualCost, double, double, ptr, ptr, ptr, ptr, ptr, ptr, i8, i32, double, double, double, double, i32, i32 }

; Function Attrs: nounwind uwtable
define internal zeroext i1 @IsBooleanOpfamily(i32 noundef %0) #0 {
  %2 = alloca i1, align 1
  %3 = alloca i32, align 4
  store i32 %0, ptr %3, align 4
  %4 = load i32, ptr %3, align 4
  %5 = icmp ult i32 %4, 16384
  br i1 %5, label %6, label %14

6:                                                ; preds = %1
  %7 = load i32, ptr %3, align 4
  %8 = icmp eq i32 %7, 424
  br i1 %8, label %12, label %9

9:                                                ; preds = %6
  %10 = load i32, ptr %3, align 4
  %11 = icmp eq i32 %10, 2222
  br label %12

12:                                               ; preds = %9, %6
  %13 = phi i1 [ true, %6 ], [ %11, %9 ]
  store i1 %13, ptr %2, align 1
  br label %17

14:                                               ; preds = %1
  %15 = load i32, ptr %3, align 4
  %16 = call zeroext i1 @op_in_opfamily(i32 noundef 91, i32 noundef %15)
  store i1 %16, ptr %2, align 1
  br label %17

17:                                               ; preds = %14, %12
  %18 = load i1, ptr %2, align 1
  ret i1 %18
}

; Function Attrs: nounwind uwtable
define dso_local zeroext i1 @indexcol_is_bool_constant_for_query(ptr noundef %0, ptr noundef %1, i32 noundef %2) #0 {
  %4 = alloca i1, align 1
  %5 = alloca ptr, align 8
  %6 = alloca ptr, align 8
  %7 = alloca i32, align 4
  %8 = alloca ptr, align 8
  %9 = alloca i32, align 4
  %10 = alloca %struct.ForEachState, align 8
  %11 = alloca ptr, align 8
  store ptr %0, ptr %5, align 8
  store ptr %1, ptr %6, align 8
  store i32 %2, ptr %7, align 4
  call void @llvm.lifetime.start.p0(i64 8, ptr %8) #7
  %12 = load ptr, ptr %6, align 8
  %13 = getelementptr inbounds nuw %struct.IndexOptInfo, ptr %12, i32 0, i32 11
  %14 = load ptr, ptr %13, align 8
  %15 = load i32, ptr %7, align 4
  %16 = sext i32 %15 to i64
  %17 = getelementptr inbounds i32, ptr %14, i64 %16
  %18 = load i32, ptr %17, align 4
  %19 = call zeroext i1 @IsBooleanOpfamily(i32 noundef %18)
  br i1 %19, label %21, label %20

20:                                               ; preds = %3
  store i1 false, ptr %4, align 1
  store i32 1, ptr %9, align 4
  br label %83

21:                                               ; preds = %3
  call void @llvm.lifetime.start.p0(i64 16, ptr %10) #7
  %22 = getelementptr inbounds nuw %struct.ForEachState, ptr %10, i32 0, i32 0
  %23 = load ptr, ptr %6, align 8
  %24 = getelementptr inbounds nuw %struct.IndexOptInfo, ptr %23, i32 0, i32 3
  %25 = load ptr, ptr %24, align 8
  %26 = getelementptr inbounds nuw %struct.RelOptInfo, ptr %25, i32 0, i32 45
  %27 = load ptr, ptr %26, align 8
  store ptr %27, ptr %22, align 8
  %28 = getelementptr inbounds nuw %struct.ForEachState, ptr %10, i32 0, i32 1
  store i32 0, ptr %28, align 8
  %29 = getelementptr i8, ptr %10, i64 12
  call void @llvm.memset.p0.i64(ptr align 4 %29, i8 0, i64 4, i1 false)
  br label %30

30:                                               ; preds = %76, %21
  %31 = getelementptr inbounds nuw %struct.ForEachState, ptr %10, i32 0, i32 0
  %32 = load ptr, ptr %31, align 8
  %33 = icmp ne ptr %32, null
  br i1 %33, label %34, label %51

34:                                               ; preds = %30
  %35 = getelementptr inbounds nuw %struct.ForEachState, ptr %10, i32 0, i32 1
  %36 = load i32, ptr %35, align 8
  %37 = getelementptr inbounds nuw %struct.ForEachState, ptr %10, i32 0, i32 0
  %38 = load ptr, ptr %37, align 8
  %39 = getelementptr inbounds nuw %struct.List, ptr %38, i32 0, i32 1
  %40 = load i32, ptr %39, align 4
  %41 = icmp slt i32 %36, %40
  br i1 %41, label %42, label %51

42:                                               ; preds = %34
  %43 = getelementptr inbounds nuw %struct.ForEachState, ptr %10, i32 0, i32 0
  %44 = load ptr, ptr %43, align 8
  %45 = getelementptr inbounds nuw %struct.List, ptr %44, i32 0, i32 3
  %46 = load ptr, ptr %45, align 8
  %47 = getelementptr inbounds nuw %struct.ForEachState, ptr %10, i32 0, i32 1
  %48 = load i32, ptr %47, align 8
  %49 = sext i32 %48 to i64
  %50 = getelementptr inbounds %union.ListCell, ptr %46, i64 %49
  store ptr %50, ptr %8, align 8
  br label %52

51:                                               ; preds = %34, %30
  store ptr null, ptr %8, align 8
  br label %52

52:                                               ; preds = %51, %42
  %53 = phi i32 [ 1, %42 ], [ 0, %51 ]
  %54 = icmp ne i32 %53, 0
  br i1 %54, label %56, label %55

55:                                               ; preds = %52
  store i32 2, ptr %9, align 4
  br label %80

56:                                               ; preds = %52
  call void @llvm.lifetime.start.p0(i64 8, ptr %11) #7
  %57 = load ptr, ptr %8, align 8
  %58 = load ptr, ptr %57, align 8
  store ptr %58, ptr %11, align 8
  %59 = load ptr, ptr %11, align 8
  %60 = getelementptr inbounds nuw %struct.RestrictInfo, ptr %59, i32 0, i32 4
  %61 = load i8, ptr %60, align 2, !range !4, !noundef !5
  %62 = trunc i8 %61 to i1
  br i1 %62, label %63, label %64

63:                                               ; preds = %56
  store i32 4, ptr %9, align 4
  br label %73

64:                                               ; preds = %56
  %65 = load ptr, ptr %5, align 8
  %66 = load ptr, ptr %11, align 8
  %67 = load i32, ptr %7, align 4
  %68 = load ptr, ptr %6, align 8
  %69 = call ptr @match_boolean_index_clause(ptr noundef %65, ptr noundef %66, i32 noundef %67, ptr noundef %68)
  %70 = icmp ne ptr %69, null
  br i1 %70, label %71, label %72

71:                                               ; preds = %64
  store i1 true, ptr %4, align 1
  store i32 1, ptr %9, align 4
  br label %73

72:                                               ; preds = %64
  store i32 0, ptr %9, align 4
  br label %73

73:                                               ; preds = %72, %71, %63
  call void @llvm.lifetime.end.p0(i64 8, ptr %11) #7
  %74 = load i32, ptr %9, align 4
  switch i32 %74, label %80 [
    i32 0, label %75
    i32 4, label %76
  ]

75:                                               ; preds = %73
  br label %76

76:                                               ; preds = %75, %73
  %77 = getelementptr inbounds nuw %struct.ForEachState, ptr %10, i32 0, i32 1
  %78 = load i32, ptr %77, align 8
  %79 = add i32 %78, 1
  store i32 %79, ptr %77, align 8
  br label %30, !llvm.loop !36

80:                                               ; preds = %73, %55
  call void @llvm.lifetime.end.p0(i64 16, ptr %10) #7
  %81 = load i32, ptr %9, align 4
  switch i32 %81, label %83 [
    i32 2, label %82
  ]

82:                                               ; preds = %80
  store i1 false, ptr %4, align 1
  store i32 1, ptr %9, align 4
  br label %83

83:                                               ; preds = %82, %80, %20
  call void @llvm.lifetime.end.p0(i64 8, ptr %8) #7
  %84 = load i1, ptr %4, align 1
  ret i1 %84
}