; Function Attrs: nounwind uwtable
define dso_local noundef zeroext i1 @indexcol_is_bool_constant_for_query(ptr noundef %0, ptr noundef readonly captures(none) %1, i32 noundef %2) local_unnamed_addr #0 {
  %4 = getelementptr inbounds nuw i8, ptr %1, i64 72
  %5 = load ptr, ptr %4, align 8
  %6 = sext i32 %2 to i64
  %7 = getelementptr inbounds i32, ptr %5, i64 %6
  %8 = load i32, ptr %7, align 4
  %9 = icmp ult i32 %8, 16384
  br i1 %9, label %10, label %IsBooleanOpfamily.exit

10:                                               ; preds = %3
  switch i32 %8, label %.loopexit [
    i32 2222, label %12
    i32 424, label %12
  ]

IsBooleanOpfamily.exit:                           ; preds = %3
  %11 = tail call zeroext i1 @op_in_opfamily(i32 noundef 91, i32 noundef %8) #8
  br i1 %11, label %12, label %.loopexit

12:                                               ; preds = %10, %10, %IsBooleanOpfamily.exit
  %13 = getelementptr inbounds nuw i8, ptr %1, i64 16
  %14 = load ptr, ptr %13, align 8
  %15 = getelementptr inbounds nuw i8, ptr %14, i64 296
  %16 = load ptr, ptr %15, align 8
  %17 = getelementptr inbounds nuw i8, ptr %16, i64 4
  %.not = icmp eq ptr %16, null
  br i1 %.not, label %.loopexit, label %.lr.ph

.lr.ph:                                           ; preds = %12
  %18 = getelementptr inbounds nuw i8, ptr %16, i64 16
  %19 = load i32, ptr %17, align 4
  %20 = icmp sgt i32 %19, 0
  br i1 %20, label %.lr.ph37, label %.loopexit

.lr.ph37:                                         ; preds = %.lr.ph, %select.unfold
  %21 = phi i32 [ %30, %select.unfold ], [ %19, %.lr.ph ]
  %indvars.iv = phi i64 [ %indvars.iv.next, %select.unfold ], [ 0, %.lr.ph ]
  %22 = load ptr, ptr %18, align 8
  %23 = getelementptr inbounds nuw %union.ListCell, ptr %22, i64 %indvars.iv
  %24 = load ptr, ptr %23, align 8
  %25 = getelementptr inbounds nuw i8, ptr %24, i64 18
  %26 = load i8, ptr %25, align 2, !range !4, !noundef !5
  %27 = trunc nuw i8 %26 to i1
  br i1 %27, label %select.unfold, label %28

28:                                               ; preds = %.lr.ph37
  %29 = tail call fastcc ptr @match_boolean_index_clause(ptr noundef %0, ptr noundef nonnull %24, i32 noundef %2, ptr noundef %1)
  %.not20 = icmp eq ptr %29, null
  br i1 %.not20, label %.select.unfold_crit_edge, label %.loopexit

.select.unfold_crit_edge:                         ; preds = %28
  %.pre = load i32, ptr %17, align 4
  br label %select.unfold

select.unfold:                                    ; preds = %.select.unfold_crit_edge, %.lr.ph37
  %30 = phi i32 [ %.pre, %.select.unfold_crit_edge ], [ %21, %.lr.ph37 ]
  %indvars.iv.next = add nuw nsw i64 %indvars.iv, 1
  %31 = sext i32 %30 to i64
  %32 = icmp slt i64 %indvars.iv.next, %31
  br i1 %32, label %.lr.ph37, label %.loopexit

.loopexit:                                        ; preds = %select.unfold, %28, %12, %.lr.ph, %10, %IsBooleanOpfamily.exit
  %.0 = phi i1 [ false, %IsBooleanOpfamily.exit ], [ false, %10 ], [ false, %12 ], [ false, %.lr.ph ], [ false, %select.unfold ], [ true, %28 ]
  ret i1 %.0
}